target datalayout = "e-m:e-p270:32:32-p271:32:32-p272:64:64-i64:64-i128:128-f80:128-n8:16:32:64-S128"
target triple = "x86_64-pc-linux-gnu"

%struct.H5S_pnt_node_t = type { ptr, [0 x i64] }
%struct.H5S_sel_iter_t = type { ptr, i32, [32 x i64], [32 x i64], i64, i64, i32, %union.anon.1 }
%union.anon.1 = type { %struct.H5S_hyper_iter_t }
%struct.H5S_hyper_iter_t = type { [32 x i64], [32 x i64], i32, i8, [32 x %struct.H5S_hyper_dim_t], [32 x i64], [32 x i64], [32 x i8], [32 x i64], ptr, [32 x ptr] }
%struct.H5S_hyper_dim_t = type { i64, i64, i64, i64 }
%struct.H5S_point_iter_t = type { ptr, ptr }

@H5S_init_g = external global i8, align 1
@H5_libterm_g = external global i8, align 1

; Function Attrs: nounwind uwtable
define internal i32 @H5S__point_iter_block(ptr noundef %0, ptr noundef %1, ptr noundef %2) #0 {
  %4 = alloca ptr, align 8
  %5 = alloca ptr, align 8
  %6 = alloca ptr, align 8
  store ptr %0, ptr %4, align 8, !tbaa !80
  store ptr %1, ptr %5, align 8, !tbaa !51
  store ptr %2, ptr %6, align 8, !tbaa !51
  %7 = load i8, ptr @H5S_init_g, align 1, !tbaa !8, !range !12, !noundef !13
  %8 = trunc i8 %7 to i1
  br i1 %8, label %13, label %9

9:                                                ; preds = %3
  %10 = load i8, ptr @H5_libterm_g, align 1, !tbaa !8, !range !12, !noundef !13
  %11 = trunc i8 %10 to i1
  %12 = xor i1 %11, true
  br label %13

13:                                               ; preds = %9, %3
  %14 = phi i1 [ true, %3 ], [ %12, %9 ]
  %15 = xor i1 %14, true
  %16 = xor i1 %15, true
  %17 = zext i1 %16 to i32
  %18 = sext i32 %17 to i64
  %19 = call i64 @llvm.expect.i64(i64 %18, i64 1)
  %20 = icmp ne i64 %19, 0
  br i1 %20, label %21, label %46

21:                                               ; preds = %13
  %22 = load ptr, ptr %5, align 8, !tbaa !51
  %23 = load ptr, ptr %4, align 8, !tbaa !80
  %24 = getelementptr inbounds nuw %struct.H5S_sel_iter_t, ptr %23, i32 0, i32 7
  %25 = getelementptr inbounds nuw %struct.H5S_point_iter_t, ptr %24, i32 0, i32 1
  %26 = load ptr, ptr %25, align 8, !tbaa !14
  %27 = getelementptr inbounds nuw %struct.H5S_pnt_node_t, ptr %26, i32 0, i32 1
  %28 = getelementptr inbounds [0 x i64], ptr %27, i64 0, i64 0
  %29 = load ptr, ptr %4, align 8, !tbaa !80
  %30 = getelementptr inbounds nuw %struct.H5S_sel_iter_t, ptr %29, i32 0, i32 1
  %31 = load i32, ptr %30, align 8, !tbaa !97
  %32 = zext i32 %31 to i64
  %33 = mul i64 8, %32
  call void @llvm.memcpy.p0.p0.i64(ptr align 8 %22, ptr align 8 %28, i64 %33, i1 false)
  %34 = load ptr, ptr %6, align 8, !tbaa !51
  %35 = load ptr, ptr %4, align 8, !tbaa !80
  %36 = getelementptr inbounds nuw %struct.H5S_sel_iter_t, ptr %35, i32 0, i32 7
  %37 = getelementptr inbounds nuw %struct.H5S_point_iter_t, ptr %36, i32 0, i32 1
  %38 = load ptr, ptr %37, align 8, !tbaa !14
  %39 = getelementptr inbounds nuw %struct.H5S_pnt_node_t, ptr %38, i32 0, i32 1
  %40 = getelementptr inbounds [0 x i64], ptr %39, i64 0, i64 0
  %41 = load ptr, ptr %4, align 8, !tbaa !80
  %42 = getelementptr inbounds nuw %struct.H5S_sel_iter_t, ptr %41, i32 0, i32 1
  %43 = load i32, ptr %42, align 8, !tbaa !97
  %44 = zext i32 %43 to i64
  %45 = mul i64 8, %44
  call void @llvm.memcpy.p0.p0.i64(ptr align 8 %34, ptr align 8 %40, i64 %45, i1 false)
  br label %46

46:                                               ; preds = %21, %13
  ret i32 0
}