; Function Attrs: mustprogress nofree norecurse nosync nounwind willreturn memory(readwrite, inaccessiblemem: none) uwtable
define internal noundef i32 @H5S__point_iter_block(ptr noundef readonly captures(none) %0, ptr noundef writeonly captures(none) %1, ptr noundef writeonly captures(none) %2) #9 {
  %4 = load i8, ptr @H5S_init_g, align 1, !tbaa !3, !range !7, !noundef !8
  %5 = trunc nuw i8 %4 to i1
  %6 = load i8, ptr @H5_libterm_g, align 1, !range !7
  %7 = trunc nuw i8 %6 to i1
  %8 = xor i1 %7, true
  %9 = select i1 %5, i1 true, i1 %8
  br i1 %9, label %10, label %23, !prof !9

10:                                               ; preds = %3
  %11 = getelementptr inbounds nuw i8, ptr %0, i64 560
  %12 = load ptr, ptr %11, align 8, !tbaa !10
  %13 = getelementptr inbounds nuw i8, ptr %12, i64 8
  %14 = getelementptr inbounds nuw i8, ptr %0, i64 8
  %15 = load i32, ptr %14, align 8, !tbaa !88
  %16 = zext i32 %15 to i64
  %17 = shl nuw nsw i64 %16, 3
  tail call void @llvm.memcpy.p0.p0.i64(ptr align 8 %1, ptr nonnull align 8 %13, i64 %17, i1 false)
  %18 = load ptr, ptr %11, align 8, !tbaa !10
  %19 = getelementptr inbounds nuw i8, ptr %18, i64 8
  %20 = load i32, ptr %14, align 8, !tbaa !88
  %21 = zext i32 %20 to i64
  %22 = shl nuw nsw i64 %21, 3
  tail call void @llvm.memcpy.p0.p0.i64(ptr align 8 %2, ptr nonnull align 8 %19, i64 %22, i1 false)
  br label %23

23:                                               ; preds = %10, %3
  ret i32 0
}